; Function Attrs: mustprogress uwtable
define noundef ptr @_ZN6icu_7512RegexPattern7compileERKNS_13UnicodeStringEjR11UParseErrorR10UErrorCode(ptr noundef nonnull align 8 dereferenceable(64) %regex, i32 noundef %flags, ptr noundef nonnull align 4 dereferenceable(72) %pe, ptr noundef nonnull align 4 dereferenceable(4) %status) local_unnamed_addr #1 align 2 personality ptr @__gxx_personality_v0 {
entry:
  %compiler = alloca %"class.icu_75::RegexCompile", align 8
  %0 = load i32, ptr %status, align 4
  %cmp.i = icmp slt i32 %0, 1
  br i1 %cmp.i, label %if.end, label %return

if.end:                                           ; preds = %entry
  %and = and i32 %flags, -960
  %cmp.not = icmp eq i32 %and, 0
  br i1 %cmp.not, label %if.end2, label %if.then1

if.then1:                                         ; preds = %if.end
  store i32 66315, ptr %status, align 4
  br label %return

if.end2:                                          ; preds = %if.end
  %and3 = and i32 %flags, 128
  %cmp4.not = icmp eq i32 %and3, 0
  br i1 %cmp4.not, label %if.end6, label %if.then5

if.then5:                                         ; preds = %if.end2
  store i32 66309, ptr %status, align 4
  br label %return

if.end6:                                          ; preds = %if.end2
  %call7 = tail call noundef ptr @_ZN6icu_757UMemorynwEm(i64 noundef 200) #11
  %new.isnull = icmp eq ptr %call7, null
  br i1 %new.isnull, label %if.then9, label %new.notnull

new.notnull:                                      ; preds = %if.end6
  invoke void @_ZN6icu_7512RegexPatternC1Ev(ptr noundef nonnull align 8 dereferenceable(200) %call7)
          to label %if.end10 unwind label %lpad

if.then9:                                         ; preds = %if.end6
  store i32 7, ptr %status, align 4
  br label %return

lpad:                                             ; preds = %new.notnull
  %1 = landingpad { ptr, i32 }
          cleanup
  tail call void @_ZN6icu_757UMemorydlEPv(ptr noundef nonnull %call7) #11
  br label %eh.resume

if.end10:                                         ; preds = %new.notnull
  %fDeferredStatus = getelementptr inbounds i8, ptr %call7, i64 120
  %2 = load i32, ptr %fDeferredStatus, align 8
  %cmp.i18 = icmp slt i32 %2, 1
  br i1 %cmp.i18, label %if.end15, label %if.then13

if.then13:                                        ; preds = %if.end10
  store i32 %2, ptr %status, align 4
  tail call void @_ZN6icu_7512RegexPatternD1Ev(ptr noundef nonnull align 8 dereferenceable(200) %call7) #11
  tail call void @_ZN6icu_757UMemorydlEPv(ptr noundef nonnull %call7) #11
  br label %return

if.end15:                                         ; preds = %if.end10
  %fFlags = getelementptr inbounds i8, ptr %call7, i64 24
  store i32 %flags, ptr %fFlags, align 8
  call void @_ZN6icu_7512RegexCompileC1EPNS_12RegexPatternER10UErrorCode(ptr noundef nonnull align 8 dereferenceable(512) %compiler, ptr noundef nonnull %call7, ptr noundef nonnull align 4 dereferenceable(4) %status)
  invoke void @_ZN6icu_7512RegexCompile7compileERKNS_13UnicodeStringER11UParseErrorR10UErrorCode(ptr noundef nonnull align 8 dereferenceable(512) %compiler, ptr noundef nonnull align 8 dereferenceable(64) %regex, ptr noundef nonnull align 4 dereferenceable(72) %pe, ptr noundef nonnull align 4 dereferenceable(4) %status)
          to label %invoke.cont17 unwind label %lpad16

invoke.cont17:                                    ; preds = %if.end15
  %3 = load i32, ptr %status, align 4
  %cmp.i20 = icmp slt i32 %3, 1
  br i1 %cmp.i20, label %if.end25, label %delete.notnull23

delete.notnull23:                                 ; preds = %invoke.cont17
  call void @_ZN6icu_7512RegexPatternD1Ev(ptr noundef nonnull align 8 dereferenceable(200) %call7) #11
  call void @_ZN6icu_757UMemorydlEPv(ptr noundef nonnull %call7) #11
  br label %if.end25

lpad16:                                           ; preds = %if.end15
  %4 = landingpad { ptr, i32 }
          cleanup
  call void @_ZN6icu_7512RegexCompileD1Ev(ptr noundef nonnull align 8 dereferenceable(512) %compiler) #11
  br label %eh.resume

if.end25:                                         ; preds = %delete.notnull23, %invoke.cont17
  %This.0 = phi ptr [ null, %delete.notnull23 ], [ %call7, %invoke.cont17 ]
  call void @_ZN6icu_7512RegexCompileD1Ev(ptr noundef nonnull align 8 dereferenceable(512) %compiler) #11
  br label %return

return:                                           ; preds = %entry, %if.end25, %if.then13, %if.then9, %if.then5, %if.then1
  %retval.0 = phi ptr [ null, %if.then1 ], [ null, %if.then5 ], [ null, %if.then9 ], [ null, %if.then13 ], [ %This.0, %if.end25 ], [ null, %entry ]
  ret ptr %retval.0

eh.resume:                                        ; preds = %lpad, %lpad16
  %.pn = phi { ptr, i32 } [ %4, %lpad16 ], [ %1, %lpad ]
  resume { ptr, i32 } %.pn
}